; Function Attrs: nounwind uwtable
define range(i32 -1, 1) i32 @bufferevent_disable_hard_(ptr noundef %0, i16 noundef signext %1) local_unnamed_addr #0 {
  %3 = getelementptr inbounds nuw i8, ptr %0, i64 448
  %4 = load ptr, ptr %3, align 8
  %.not = icmp eq ptr %4, null
  br i1 %.not, label %8, label %5

5:                                                ; preds = %2
  %6 = load ptr, ptr getelementptr inbounds nuw (i8, ptr @evthread_lock_fns_, i64 24), align 8
  %7 = tail call i32 %6(i32 noundef 0, ptr noundef nonnull %4) #7
  br label %8

8:                                                ; preds = %5, %2
  %9 = xor i16 %1, -1
  %10 = getelementptr inbounds nuw i8, ptr %0, i64 368
  %11 = load i16, ptr %10, align 8
  %12 = and i16 %11, %9
  store i16 %12, ptr %10, align 8
  %13 = getelementptr inbounds nuw i8, ptr %0, i64 384
  %14 = load i8, ptr %13, align 8
  %15 = and i8 %14, -9
  store i8 %15, ptr %13, align 8
  %16 = getelementptr inbounds nuw i8, ptr %0, i64 8
  %17 = load ptr, ptr %16, align 8
  %18 = getelementptr inbounds nuw i8, ptr %17, i64 24
  %19 = load ptr, ptr %18, align 8
  %20 = tail call i32 %19(ptr noundef nonnull %0, i16 noundef signext %1) #7
  %21 = load ptr, ptr %3, align 8
  %.not15 = icmp eq ptr %21, null
  br i1 %.not15, label %25, label %22

22:                                               ; preds = %8
  %23 = load ptr, ptr getelementptr inbounds nuw (i8, ptr @evthread_lock_fns_, i64 32), align 8
  %24 = tail call i32 %23(i32 noundef 0, ptr noundef nonnull %21) #7
  br label %25

25:                                               ; preds = %22, %8
  %.lobit = ashr i32 %20, 31
  ret i32 %.lobit
}